target datalayout = "e-m:e-p270:32:32-p271:32:32-p272:64:64-i64:64-i128:128-f80:128-n8:16:32:64-S128"
target triple = "x86_64-pc-linux-gnu"

; Function Attrs: nounwind uwtable
define void @ff_ivi_row_slant8(ptr noundef %0, ptr noundef %1, i64 noundef %2, ptr noundef %3) #0 {
  %5 = alloca ptr, align 8
  %6 = alloca ptr, align 8
  %7 = alloca i64, align 8
  %8 = alloca ptr, align 8
  %9 = alloca i32, align 4
  %10 = alloca i32, align 4
  %11 = alloca i32, align 4
  %12 = alloca i32, align 4
  %13 = alloca i32, align 4
  %14 = alloca i32, align 4
  %15 = alloca i32, align 4
  %16 = alloca i32, align 4
  %17 = alloca i32, align 4
  %18 = alloca i32, align 4
  store ptr %0, ptr %5, align 8, !tbaa !40
  store ptr %1, ptr %6, align 8, !tbaa !30
  store i64 %2, ptr %7, align 8, !tbaa !11
  store ptr %3, ptr %8, align 8, !tbaa !9
  call void @llvm.lifetime.start.p0(i64 4, ptr %9) #4
  call void @llvm.lifetime.start.p0(i64 4, ptr %10) #4
  call void @llvm.lifetime.start.p0(i64 4, ptr %11) #4
  call void @llvm.lifetime.start.p0(i64 4, ptr %12) #4
  call void @llvm.lifetime.start.p0(i64 4, ptr %13) #4
  call void @llvm.lifetime.start.p0(i64 4, ptr %14) #4
  call void @llvm.lifetime.start.p0(i64 4, ptr %15) #4
  call void @llvm.lifetime.start.p0(i64 4, ptr %16) #4
  call void @llvm.lifetime.start.p0(i64 4, ptr %17) #4
  call void @llvm.lifetime.start.p0(i64 4, ptr %18) #4
  store i32 0, ptr %9, align 4, !tbaa !13
  br label %19

19:                                               ; preds = %277, %4
  %20 = load i32, ptr %9, align 4, !tbaa !13
  %21 = icmp slt i32 %20, 8
  br i1 %21, label %22, label %280

22:                                               ; preds = %19
  %23 = load ptr, ptr %5, align 8, !tbaa !40
  %24 = getelementptr inbounds i32, ptr %23, i64 0
  %25 = load i32, ptr %24, align 4, !tbaa !13
  %26 = icmp ne i32 %25, 0
  br i1 %26, label %64, label %27

27:                                               ; preds = %22
  %28 = load ptr, ptr %5, align 8, !tbaa !40
  %29 = getelementptr inbounds i32, ptr %28, i64 1
  %30 = load i32, ptr %29, align 4, !tbaa !13
  %31 = icmp ne i32 %30, 0
  br i1 %31, label %64, label %32

32:                                               ; preds = %27
  %33 = load ptr, ptr %5, align 8, !tbaa !40
  %34 = getelementptr inbounds i32, ptr %33, i64 2
  %35 = load i32, ptr %34, align 4, !tbaa !13
  %36 = icmp ne i32 %35, 0
  br i1 %36, label %64, label %37

37:                                               ; preds = %32
  %38 = load ptr, ptr %5, align 8, !tbaa !40
  %39 = getelementptr inbounds i32, ptr %38, i64 3
  %40 = load i32, ptr %39, align 4, !tbaa !13
  %41 = icmp ne i32 %40, 0
  br i1 %41, label %64, label %42

42:                                               ; preds = %37
  %43 = load ptr, ptr %5, align 8, !tbaa !40
  %44 = getelementptr inbounds i32, ptr %43, i64 4
  %45 = load i32, ptr %44, align 4, !tbaa !13
  %46 = icmp ne i32 %45, 0
  br i1 %46, label %64, label %47

47:                                               ; preds = %42
  %48 = load ptr, ptr %5, align 8, !tbaa !40
  %49 = getelementptr inbounds i32, ptr %48, i64 5
  %50 = load i32, ptr %49, align 4, !tbaa !13
  %51 = icmp ne i32 %50, 0
  br i1 %51, label %64, label %52

52:                                               ; preds = %47
  %53 = load ptr, ptr %5, align 8, !tbaa !40
  %54 = getelementptr inbounds i32, ptr %53, i64 6
  %55 = load i32, ptr %54, align 4, !tbaa !13
  %56 = icmp ne i32 %55, 0
  br i1 %56, label %64, label %57

57:                                               ; preds = %52
  %58 = load ptr, ptr %5, align 8, !tbaa !40
  %59 = getelementptr inbounds i32, ptr %58, i64 7
  %60 = load i32, ptr %59, align 4, !tbaa !13
  %61 = icmp ne i32 %60, 0
  br i1 %61, label %64, label %62

62:                                               ; preds = %57
  %63 = load ptr, ptr %6, align 8, !tbaa !30
  call void @llvm.memset.p0.i64(ptr align 2 %63, i8 0, i64 16, i1 false)
  br label %271

64:                                               ; preds = %57, %52, %47, %42, %37, %32, %27, %22
  %65 = load ptr, ptr %5, align 8, !tbaa !40
  %66 = getelementptr inbounds i32, ptr %65, i64 3
  %67 = load i32, ptr %66, align 4, !tbaa !13
  %68 = load ptr, ptr %5, align 8, !tbaa !40
  %69 = getelementptr inbounds i32, ptr %68, i64 1
  %70 = load i32, ptr %69, align 4, !tbaa !13
  %71 = mul nsw i32 %70, 4
  %72 = load ptr, ptr %5, align 8, !tbaa !40
  %73 = getelementptr inbounds i32, ptr %72, i64 3
  %74 = load i32, ptr %73, align 4, !tbaa !13
  %75 = sub nsw i32 %71, %74
  %76 = add nsw i32 %75, 4
  %77 = ashr i32 %76, 3
  %78 = add nsw i32 %67, %77
  store i32 %78, ptr %10, align 4, !tbaa !13
  %79 = load ptr, ptr %5, align 8, !tbaa !40
  %80 = getelementptr inbounds i32, ptr %79, i64 1
  %81 = load i32, ptr %80, align 4, !tbaa !13
  %82 = load ptr, ptr %5, align 8, !tbaa !40
  %83 = getelementptr inbounds i32, ptr %82, i64 1
  %84 = load i32, ptr %83, align 4, !tbaa !13
  %85 = sub nsw i32 0, %84
  %86 = load ptr, ptr %5, align 8, !tbaa !40
  %87 = getelementptr inbounds i32, ptr %86, i64 3
  %88 = load i32, ptr %87, align 4, !tbaa !13
  %89 = mul nsw i32 %88, 4
  %90 = sub nsw i32 %85, %89
  %91 = add nsw i32 %90, 4
  %92 = ashr i32 %91, 3
  %93 = add nsw i32 %81, %92
  store i32 %93, ptr %15, align 4, !tbaa !13
  %94 = load i32, ptr %10, align 4, !tbaa !13
  store i32 %94, ptr %14, align 4, !tbaa !13
  %95 = load ptr, ptr %5, align 8, !tbaa !40
  %96 = getelementptr inbounds i32, ptr %95, i64 0
  %97 = load i32, ptr %96, align 4, !tbaa !13
  %98 = load i32, ptr %15, align 4, !tbaa !13
  %99 = sub nsw i32 %97, %98
  store i32 %99, ptr %10, align 4, !tbaa !13
  %100 = load ptr, ptr %5, align 8, !tbaa !40
  %101 = getelementptr inbounds i32, ptr %100, i64 0
  %102 = load i32, ptr %101, align 4, !tbaa !13
  %103 = load i32, ptr %15, align 4, !tbaa !13
  %104 = add nsw i32 %102, %103
  store i32 %104, ptr %11, align 4, !tbaa !13
  %105 = load i32, ptr %10, align 4, !tbaa !13
  store i32 %105, ptr %15, align 4, !tbaa !13
  %106 = load ptr, ptr %5, align 8, !tbaa !40
  %107 = getelementptr inbounds i32, ptr %106, i64 4
  %108 = load i32, ptr %107, align 4, !tbaa !13
  %109 = load ptr, ptr %5, align 8, !tbaa !40
  %110 = getelementptr inbounds i32, ptr %109, i64 5
  %111 = load i32, ptr %110, align 4, !tbaa !13
  %112 = sub nsw i32 %108, %111
  store i32 %112, ptr %10, align 4, !tbaa !13
  %113 = load ptr, ptr %5, align 8, !tbaa !40
  %114 = getelementptr inbounds i32, ptr %113, i64 4
  %115 = load i32, ptr %114, align 4, !tbaa !13
  %116 = load ptr, ptr %5, align 8, !tbaa !40
  %117 = getelementptr inbounds i32, ptr %116, i64 5
  %118 = load i32, ptr %117, align 4, !tbaa !13
  %119 = add nsw i32 %115, %118
  store i32 %119, ptr %12, align 4, !tbaa !13
  %120 = load i32, ptr %10, align 4, !tbaa !13
  store i32 %120, ptr %16, align 4, !tbaa !13
  %121 = load ptr, ptr %5, align 8, !tbaa !40
  %122 = getelementptr inbounds i32, ptr %121, i64 7
  %123 = load i32, ptr %122, align 4, !tbaa !13
  %124 = load ptr, ptr %5, align 8, !tbaa !40
  %125 = getelementptr inbounds i32, ptr %124, i64 6
  %126 = load i32, ptr %125, align 4, !tbaa !13
  %127 = sub nsw i32 %123, %126
  store i32 %127, ptr %10, align 4, !tbaa !13
  %128 = load ptr, ptr %5, align 8, !tbaa !40
  %129 = getelementptr inbounds i32, ptr %128, i64 7
  %130 = load i32, ptr %129, align 4, !tbaa !13
  %131 = load ptr, ptr %5, align 8, !tbaa !40
  %132 = getelementptr inbounds i32, ptr %131, i64 6
  %133 = load i32, ptr %132, align 4, !tbaa !13
  %134 = add nsw i32 %130, %133
  store i32 %134, ptr %17, align 4, !tbaa !13
  %135 = load i32, ptr %10, align 4, !tbaa !13
  store i32 %135, ptr %13, align 4, !tbaa !13
  %136 = load i32, ptr %14, align 4, !tbaa !13
  %137 = load ptr, ptr %5, align 8, !tbaa !40
  %138 = getelementptr inbounds i32, ptr %137, i64 2
  %139 = load i32, ptr %138, align 4, !tbaa !13
  %140 = sub nsw i32 %136, %139
  store i32 %140, ptr %10, align 4, !tbaa !13
  %141 = load i32, ptr %14, align 4, !tbaa !13
  %142 = load ptr, ptr %5, align 8, !tbaa !40
  %143 = getelementptr inbounds i32, ptr %142, i64 2
  %144 = load i32, ptr %143, align 4, !tbaa !13
  %145 = add nsw i32 %141, %144
  store i32 %145, ptr %14, align 4, !tbaa !13
  %146 = load i32, ptr %10, align 4, !tbaa !13
  store i32 %146, ptr %18, align 4, !tbaa !13
  %147 = load i32, ptr %11, align 4, !tbaa !13
  %148 = load i32, ptr %12, align 4, !tbaa !13
  %149 = sub nsw i32 %147, %148
  store i32 %149, ptr %10, align 4, !tbaa !13
  %150 = load i32, ptr %11, align 4, !tbaa !13
  %151 = load i32, ptr %12, align 4, !tbaa !13
  %152 = add nsw i32 %150, %151
  store i32 %152, ptr %11, align 4, !tbaa !13
  %153 = load i32, ptr %10, align 4, !tbaa !13
  store i32 %153, ptr %12, align 4, !tbaa !13
  %154 = load i32, ptr %14, align 4, !tbaa !13
  %155 = load i32, ptr %13, align 4, !tbaa !13
  %156 = mul nsw i32 %155, 2
  %157 = add nsw i32 %154, %156
  %158 = add nsw i32 %157, 2
  %159 = ashr i32 %158, 2
  %160 = load i32, ptr %14, align 4, !tbaa !13
  %161 = add nsw i32 %159, %160
  store i32 %161, ptr %10, align 4, !tbaa !13
  %162 = load i32, ptr %14, align 4, !tbaa !13
  %163 = mul nsw i32 %162, 2
  %164 = load i32, ptr %13, align 4, !tbaa !13
  %165 = sub nsw i32 %163, %164
  %166 = add nsw i32 %165, 2
  %167 = ashr i32 %166, 2
  %168 = load i32, ptr %13, align 4, !tbaa !13
  %169 = sub nsw i32 %167, %168
  store i32 %169, ptr %13, align 4, !tbaa !13
  %170 = load i32, ptr %10, align 4, !tbaa !13
  store i32 %170, ptr %14, align 4, !tbaa !13
  %171 = load i32, ptr %15, align 4, !tbaa !13
  %172 = load i32, ptr %16, align 4, !tbaa !13
  %173 = sub nsw i32 %171, %172
  store i32 %173, ptr %10, align 4, !tbaa !13
  %174 = load i32, ptr %15, align 4, !tbaa !13
  %175 = load i32, ptr %16, align 4, !tbaa !13
  %176 = add nsw i32 %174, %175
  store i32 %176, ptr %15, align 4, !tbaa !13
  %177 = load i32, ptr %10, align 4, !tbaa !13
  store i32 %177, ptr %16, align 4, !tbaa !13
  %178 = load i32, ptr %18, align 4, !tbaa !13
  %179 = load i32, ptr %17, align 4, !tbaa !13
  %180 = mul nsw i32 %179, 2
  %181 = add nsw i32 %178, %180
  %182 = add nsw i32 %181, 2
  %183 = ashr i32 %182, 2
  %184 = load i32, ptr %18, align 4, !tbaa !13
  %185 = add nsw i32 %183, %184
  store i32 %185, ptr %10, align 4, !tbaa !13
  %186 = load i32, ptr %18, align 4, !tbaa !13
  %187 = mul nsw i32 %186, 2
  %188 = load i32, ptr %17, align 4, !tbaa !13
  %189 = sub nsw i32 %187, %188
  %190 = add nsw i32 %189, 2
  %191 = ashr i32 %190, 2
  %192 = load i32, ptr %17, align 4, !tbaa !13
  %193 = sub nsw i32 %191, %192
  store i32 %193, ptr %17, align 4, !tbaa !13
  %194 = load i32, ptr %10, align 4, !tbaa !13
  store i32 %194, ptr %18, align 4, !tbaa !13
  %195 = load i32, ptr %11, align 4, !tbaa !13
  %196 = load i32, ptr %14, align 4, !tbaa !13
  %197 = sub nsw i32 %195, %196
  store i32 %197, ptr %10, align 4, !tbaa !13
  %198 = load i32, ptr %11, align 4, !tbaa !13
  %199 = load i32, ptr %14, align 4, !tbaa !13
  %200 = add nsw i32 %198, %199
  store i32 %200, ptr %11, align 4, !tbaa !13
  %201 = load i32, ptr %10, align 4, !tbaa !13
  store i32 %201, ptr %14, align 4, !tbaa !13
  %202 = load i32, ptr %12, align 4, !tbaa !13
  %203 = load i32, ptr %13, align 4, !tbaa !13
  %204 = sub nsw i32 %202, %203
  store i32 %204, ptr %10, align 4, !tbaa !13
  %205 = load i32, ptr %12, align 4, !tbaa !13
  %206 = load i32, ptr %13, align 4, !tbaa !13
  %207 = add nsw i32 %205, %206
  store i32 %207, ptr %12, align 4, !tbaa !13
  %208 = load i32, ptr %10, align 4, !tbaa !13
  store i32 %208, ptr %13, align 4, !tbaa !13
  %209 = load i32, ptr %15, align 4, !tbaa !13
  %210 = load i32, ptr %18, align 4, !tbaa !13
  %211 = sub nsw i32 %209, %210
  store i32 %211, ptr %10, align 4, !tbaa !13
  %212 = load i32, ptr %15, align 4, !tbaa !13
  %213 = load i32, ptr %18, align 4, !tbaa !13
  %214 = add nsw i32 %212, %213
  store i32 %214, ptr %15, align 4, !tbaa !13
  %215 = load i32, ptr %10, align 4, !tbaa !13
  store i32 %215, ptr %18, align 4, !tbaa !13
  %216 = load i32, ptr %16, align 4, !tbaa !13
  %217 = load i32, ptr %17, align 4, !tbaa !13
  %218 = sub nsw i32 %216, %217
  store i32 %218, ptr %10, align 4, !tbaa !13
  %219 = load i32, ptr %16, align 4, !tbaa !13
  %220 = load i32, ptr %17, align 4, !tbaa !13
  %221 = add nsw i32 %219, %220
  store i32 %221, ptr %16, align 4, !tbaa !13
  %222 = load i32, ptr %10, align 4, !tbaa !13
  store i32 %222, ptr %17, align 4, !tbaa !13
  %223 = load i32, ptr %11, align 4, !tbaa !13
  %224 = add nsw i32 %223, 1
  %225 = ashr i32 %224, 1
  %226 = trunc i32 %225 to i16
  %227 = load ptr, ptr %6, align 8, !tbaa !30
  %228 = getelementptr inbounds i16, ptr %227, i64 0
  store i16 %226, ptr %228, align 2, !tbaa !32
  %229 = load i32, ptr %12, align 4, !tbaa !13
  %230 = add nsw i32 %229, 1
  %231 = ashr i32 %230, 1
  %232 = trunc i32 %231 to i16
  %233 = load ptr, ptr %6, align 8, !tbaa !30
  %234 = getelementptr inbounds i16, ptr %233, i64 1
  store i16 %232, ptr %234, align 2, !tbaa !32
  %235 = load i32, ptr %13, align 4, !tbaa !13
  %236 = add nsw i32 %235, 1
  %237 = ashr i32 %236, 1
  %238 = trunc i32 %237 to i16
  %239 = load ptr, ptr %6, align 8, !tbaa !30
  %240 = getelementptr inbounds i16, ptr %239, i64 2
  store i16 %238, ptr %240, align 2, !tbaa !32
  %241 = load i32, ptr %14, align 4, !tbaa !13
  %242 = add nsw i32 %241, 1
  %243 = ashr i32 %242, 1
  %244 = trunc i32 %243 to i16
  %245 = load ptr, ptr %6, align 8, !tbaa !30
  %246 = getelementptr inbounds i16, ptr %245, i64 3
  store i16 %244, ptr %246, align 2, !tbaa !32
  %247 = load i32, ptr %15, align 4, !tbaa !13
  %248 = add nsw i32 %247, 1
  %249 = ashr i32 %248, 1
  %250 = trunc i32 %249 to i16
  %251 = load ptr, ptr %6, align 8, !tbaa !30
  %252 = getelementptr inbounds i16, ptr %251, i64 4
  store i16 %250, ptr %252, align 2, !tbaa !32
  %253 = load i32, ptr %16, align 4, !tbaa !13
  %254 = add nsw i32 %253, 1
  %255 = ashr i32 %254, 1
  %256 = trunc i32 %255 to i16
  %257 = load ptr, ptr %6, align 8, !tbaa !30
  %258 = getelementptr inbounds i16, ptr %257, i64 5
  store i16 %256, ptr %258, align 2, !tbaa !32
  %259 = load i32, ptr %17, align 4, !tbaa !13
  %260 = add nsw i32 %259, 1
  %261 = ashr i32 %260, 1
  %262 = trunc i32 %261 to i16
  %263 = load ptr, ptr %6, align 8, !tbaa !30
  %264 = getelementptr inbounds i16, ptr %263, i64 6
  store i16 %262, ptr %264, align 2, !tbaa !32
  %265 = load i32, ptr %18, align 4, !tbaa !13
  %266 = add nsw i32 %265, 1
  %267 = ashr i32 %266, 1
  %268 = trunc i32 %267 to i16
  %269 = load ptr, ptr %6, align 8, !tbaa !30
  %270 = getelementptr inbounds i16, ptr %269, i64 7
  store i16 %268, ptr %270, align 2, !tbaa !32
  br label %271

271:                                              ; preds = %64, %62
  %272 = load ptr, ptr %5, align 8, !tbaa !40
  %273 = getelementptr inbounds i32, ptr %272, i64 8
  store ptr %273, ptr %5, align 8, !tbaa !40
  %274 = load i64, ptr %7, align 8, !tbaa !11
  %275 = load ptr, ptr %6, align 8, !tbaa !30
  %276 = getelementptr inbounds i16, ptr %275, i64 %274
  store ptr %276, ptr %6, align 8, !tbaa !30
  br label %277

277:                                              ; preds = %271
  %278 = load i32, ptr %9, align 4, !tbaa !13
  %279 = add nsw i32 %278, 1
  store i32 %279, ptr %9, align 4, !tbaa !13
  br label %19, !llvm.loop !58

280:                                              ; preds = %19
  call void @llvm.lifetime.end.p0(i64 4, ptr %18) #4
  call void @llvm.lifetime.end.p0(i64 4, ptr %17) #4
  call void @llvm.lifetime.end.p0(i64 4, ptr %16) #4
  call void @llvm.lifetime.end.p0(i64 4, ptr %15) #4
  call void @llvm.lifetime.end.p0(i64 4, ptr %14) #4
  call void @llvm.lifetime.end.p0(i64 4, ptr %13) #4
  call void @llvm.lifetime.end.p0(i64 4, ptr %12) #4
  call void @llvm.lifetime.end.p0(i64 4, ptr %11) #4
  call void @llvm.lifetime.end.p0(i64 4, ptr %10) #4
  call void @llvm.lifetime.end.p0(i64 4, ptr %9) #4
  ret void
}