; Function Attrs: nofree norecurse nosync nounwind memory(argmem: readwrite) uwtable
define void @ff_ivi_row_slant8(ptr noundef readonly captures(none) %0, ptr noundef writeonly captures(none) %1, i64 noundef %2, ptr noundef readnone captures(none) %3) local_unnamed_addr #2 {
  br label %5

5:                                                ; preds = %4, %113
  %.0120 = phi ptr [ %0, %4 ], [ %114, %113 ]
  %.0100119 = phi ptr [ %1, %4 ], [ %115, %113 ]
  %.0101118 = phi i32 [ 0, %4 ], [ %116, %113 ]
  %6 = load i32, ptr %.0120, align 4, !tbaa !34
  %.not = icmp eq i32 %6, 0
  %7 = getelementptr inbounds nuw i8, ptr %.0120, i64 4
  %8 = load i32, ptr %7, align 4, !tbaa !34
  %.not102 = icmp eq i32 %8, 0
  %or.cond = select i1 %.not, i1 %.not102, i1 false
  br i1 %or.cond, label %9, label %._crit_edge

9:                                                ; preds = %5
  %10 = getelementptr inbounds nuw i8, ptr %.0120, i64 8
  %11 = load i32, ptr %10, align 4, !tbaa !34
  %.not103 = icmp eq i32 %11, 0
  br i1 %.not103, label %12, label %._crit_edge

12:                                               ; preds = %9
  %13 = getelementptr inbounds nuw i8, ptr %.0120, i64 12
  %14 = load i32, ptr %13, align 4, !tbaa !34
  %.not104 = icmp eq i32 %14, 0
  br i1 %.not104, label %15, label %._crit_edge

15:                                               ; preds = %12
  %16 = getelementptr inbounds nuw i8, ptr %.0120, i64 16
  %17 = load i32, ptr %16, align 4, !tbaa !34
  %.not105 = icmp eq i32 %17, 0
  br i1 %.not105, label %18, label %._crit_edge

18:                                               ; preds = %15
  %19 = getelementptr inbounds nuw i8, ptr %.0120, i64 20
  %20 = load i32, ptr %19, align 4, !tbaa !34
  %.not106 = icmp eq i32 %20, 0
  br i1 %.not106, label %21, label %._crit_edge

21:                                               ; preds = %18
  %22 = getelementptr inbounds nuw i8, ptr %.0120, i64 24
  %23 = load i32, ptr %22, align 4, !tbaa !34
  %.not107 = icmp eq i32 %23, 0
  br i1 %.not107, label %24, label %._crit_edge

24:                                               ; preds = %21
  %25 = getelementptr inbounds nuw i8, ptr %.0120, i64 28
  %26 = load i32, ptr %25, align 4, !tbaa !34
  %.not108 = icmp eq i32 %26, 0
  br i1 %.not108, label %27, label %._crit_edge

27:                                               ; preds = %24
  tail call void @llvm.memset.p0.i64(ptr noundef nonnull align 2 dereferenceable(16) %.0100119, i8 0, i64 16, i1 false)
  br label %113

._crit_edge:                                      ; preds = %5, %24, %21, %18, %15, %12, %9
  %28 = phi i32 [ 0, %24 ], [ 0, %21 ], [ 0, %18 ], [ 0, %15 ], [ 0, %12 ], [ 0, %9 ], [ %8, %5 ]
  %29 = getelementptr inbounds nuw i8, ptr %.0120, i64 12
  %30 = load i32, ptr %29, align 4, !tbaa !34
  %31 = shl nsw i32 %28, 2
  %reass.sub = sub i32 %31, %30
  %32 = add i32 %reass.sub, 4
  %33 = ashr i32 %32, 3
  %34 = add nsw i32 %33, %30
  %.neg = mul i32 %30, -4
  %reass.sub121 = sub i32 %.neg, %28
  %35 = add i32 %reass.sub121, 4
  %36 = ashr i32 %35, 3
  %37 = add nsw i32 %36, %28
  %38 = sub nsw i32 %6, %37
  %39 = add nsw i32 %37, %6
  %40 = getelementptr inbounds nuw i8, ptr %.0120, i64 16
  %41 = load i32, ptr %40, align 4, !tbaa !34
  %42 = getelementptr inbounds nuw i8, ptr %.0120, i64 20
  %43 = load i32, ptr %42, align 4, !tbaa !34
  %44 = sub nsw i32 %41, %43
  %45 = add nsw i32 %43, %41
  %46 = getelementptr inbounds nuw i8, ptr %.0120, i64 28
  %47 = load i32, ptr %46, align 4, !tbaa !34
  %48 = getelementptr inbounds nuw i8, ptr %.0120, i64 24
  %49 = load i32, ptr %48, align 4, !tbaa !34
  %50 = sub nsw i32 %47, %49
  %51 = add nsw i32 %49, %47
  %52 = getelementptr inbounds nuw i8, ptr %.0120, i64 8
  %53 = load i32, ptr %52, align 4, !tbaa !34
  %54 = sub nsw i32 %34, %53
  %55 = add nsw i32 %53, %34
  %56 = sub nsw i32 %39, %45
  %57 = add nsw i32 %39, %45
  %58 = shl nsw i32 %50, 1
  %59 = add i32 %58, 2
  %60 = add i32 %59, %55
  %61 = ashr i32 %60, 2
  %62 = add nsw i32 %61, %55
  %63 = shl nsw i32 %55, 1
  %reass.sub122 = sub i32 %63, %50
  %64 = add i32 %reass.sub122, 2
  %65 = ashr i32 %64, 2
  %66 = sub nsw i32 %65, %50
  %67 = sub nsw i32 %38, %44
  %68 = add nsw i32 %38, %44
  %69 = shl nsw i32 %51, 1
  %70 = add i32 %69, 2
  %71 = add i32 %70, %54
  %72 = ashr i32 %71, 2
  %73 = add nsw i32 %72, %54
  %74 = shl nsw i32 %54, 1
  %reass.sub123 = sub i32 %74, %51
  %75 = add i32 %reass.sub123, 2
  %76 = ashr i32 %75, 2
  %77 = sub nsw i32 %76, %51
  %78 = add i32 %57, 1
  %79 = add i32 %78, %62
  %80 = lshr i32 %79, 1
  %81 = trunc i32 %80 to i16
  store i16 %81, ptr %.0100119, align 2, !tbaa !27
  %82 = add i32 %56, 1
  %83 = add i32 %82, %66
  %84 = lshr i32 %83, 1
  %85 = trunc i32 %84 to i16
  %86 = getelementptr inbounds nuw i8, ptr %.0100119, i64 2
  store i16 %85, ptr %86, align 2, !tbaa !27
  %87 = sub i32 %82, %66
  %88 = lshr i32 %87, 1
  %89 = trunc i32 %88 to i16
  %90 = getelementptr inbounds nuw i8, ptr %.0100119, i64 4
  store i16 %89, ptr %90, align 2, !tbaa !27
  %91 = sub i32 %78, %62
  %92 = lshr i32 %91, 1
  %93 = trunc i32 %92 to i16
  %94 = getelementptr inbounds nuw i8, ptr %.0100119, i64 6
  store i16 %93, ptr %94, align 2, !tbaa !27
  %95 = add i32 %68, 1
  %96 = add i32 %95, %73
  %97 = lshr i32 %96, 1
  %98 = trunc i32 %97 to i16
  %99 = getelementptr inbounds nuw i8, ptr %.0100119, i64 8
  store i16 %98, ptr %99, align 2, !tbaa !27
  %100 = add i32 %67, 1
  %101 = add i32 %100, %77
  %102 = lshr i32 %101, 1
  %103 = trunc i32 %102 to i16
  %104 = getelementptr inbounds nuw i8, ptr %.0100119, i64 10
  store i16 %103, ptr %104, align 2, !tbaa !27
  %105 = sub i32 %100, %77
  %106 = lshr i32 %105, 1
  %107 = trunc i32 %106 to i16
  %108 = getelementptr inbounds nuw i8, ptr %.0100119, i64 12
  store i16 %107, ptr %108, align 2, !tbaa !27
  %109 = sub i32 %95, %73
  %110 = lshr i32 %109, 1
  %111 = trunc i32 %110 to i16
  %112 = getelementptr inbounds nuw i8, ptr %.0100119, i64 14
  store i16 %111, ptr %112, align 2, !tbaa !27
  br label %113

113:                                              ; preds = %._crit_edge, %27
  %114 = getelementptr inbounds nuw i8, ptr %.0120, i64 32
  %115 = getelementptr inbounds i16, ptr %.0100119, i64 %2
  %116 = add nuw nsw i32 %.0101118, 1
  %exitcond.not = icmp eq i32 %116, 8
  br i1 %exitcond.not, label %117, label %5, !llvm.loop !51

117:                                              ; preds = %113
  ret void
}